Certificate:
    Data:
        Version: 3 (0x2)
        Serial Number:
            d3:74:96:f8:cd:a5:7c:60
        Signature Algorithm: sha1WithRSAEncryption
        Issuer: C=JP, ST=Tokyo, O=Kazzla, OU=Development, CN=kazzla.com/emailAddress=koiroha@gmail.com
        Validity
            Not Before: Jan  9 19:08:05 2014 GMT
            Not After : Jan  7 19:08:05 2024 GMT
        Subject: C=JP, ST=Tokyo, O=Kazzla, OU=torao, OU=node, CN=3a3746de-eb0d-4841-876d-0333effb9abc
        Subject Public Key Info:
            Public Key Algorithm: rsaEncryption
            RSA Public Key: (2048 bit)
                Modulus (2048 bit):
                    00:9d:06:9a:ee:26:7d:35:aa:c5:18:41:3e:e8:93:
                    aa:e0:17:93:7b:fa:33:b8:da:b1:f1:5e:b5:dc:72:
                    e2:85:e2:b7:84:52:24:66:b4:eb:22:e8:25:19:57:
                    2e:6d:19:ed:17:31:21:a6:36:9a:52:9e:15:b2:57:
                    4d:d9:73:8e:70:70:5e:76:3c:45:ce:08:27:cc:f8:
                    64:40:b8:d1:f5:41:1f:f3:24:ea:b5:3f:60:8b:85:
                    47:83:89:f3:0b:fd:af:3a:9a:74:34:f5:b4:de:c8:
                    ad:bc:13:56:54:25:88:1a:2a:62:c0:f4:7a:3c:e7:
                    ee:7d:7b:08:53:7b:f1:6a:aa:4c:8d:98:39:43:58:
                    ee:c6:68:67:d5:8a:7a:a1:e0:25:85:66:b2:78:52:
                    b2:de:93:2b:4f:65:7f:b1:35:11:4f:2f:07:c7:d5:
                    2c:f2:be:38:95:3c:92:d1:31:f7:f1:44:f2:83:55:
                    cd:64:e4:d3:a2:c8:81:8f:19:fb:bd:bc:f1:82:82:
                    de:2d:f2:6d:be:bb:8e:f2:92:82:0c:07:9f:fb:d2:
                    bc:8d:21:aa:56:df:38:a0:56:f7:49:cc:9a:d3:bb:
                    e4:1d:ad:eb:84:7d:2f:b1:98:89:e4:25:71:60:2b:
                    1e:20:d6:55:f6:95:50:9a:62:9d:5a:d3:76:03:7c:
                    de:69
                Exponent: 65537 (0x10001)
        X509v3 extensions:
            X509v3 Basic Constraints: 
                CA:FALSE
            Netscape Comment: 
                OpenSSL Generated Certificate
            X509v3 Subject Key Identifier: 
                73:51:24:36:2F:4B:5C:54:31:FD:F4:02:32:4E:D8:58:5D:6A:3E:6B
            X509v3 Authority Key Identifier: 
                keyid:5C:5D:6D:E9:C6:48:CA:FD:0F:EB:7B:13:C5:64:8E:09:BA:8B:57:3B

    Signature Algorithm: sha1WithRSAEncryption
        d4:f5:db:69:d9:6b:f6:26:86:61:f1:30:18:27:63:ab:ad:27:
        9e:e2:96:e0:9a:20:5c:5d:3a:89:ee:1d:7a:88:b8:5a:4c:76:
        d4:3b:63:d3:1b:db:22:b4:72:d6:bc:75:7c:86:73:42:82:2f:
        25:5d:37:ff:c9:65:d6:fb:51:2a:3a:32:c8:4c:4a:7a:d6:8b:
        a7:6e:87:2e:54:f0:41:93:ef:a9:c8:04:f6:c0:9c:ac:80:9d:
        26:e1:55:d6:46:f8:31:3c:4e:f2:40:35:67:9a:1e:57:2d:d0:
        a3:00:36:bc:8a:b4:e5:32:51:3b:fd:0f:7b:31:e7:64:49:88:
        22:aa
-----BEGIN CERTIFICATE-----
MIIDdDCCAt2gAwIBAgIJANN0lvjNpXxgMA0GCSqGSIb3DQEBBQUAMHsxCzAJBgNV
BAYTAkpQMQ4wDAYDVQQIEwVUb2t5bzEPMA0GA1UEChMGS2F6emxhMRQwEgYDVQQL
EwtEZXZlbG9wbWVudDETMBEGA1UEAxMKa2F6emxhLmNvbTEgMB4GCSqGSIb3DQEJ
ARYRa29pcm9oYUBnbWFpbC5jb20wHhcNMTQwMTA5MTkwODA1WhcNMjQwMTA3MTkw
ODA1WjB8MQswCQYDVQQGEwJKUDEOMAwGA1UECBMFVG9reW8xDzANBgNVBAoTBkth
enpsYTEOMAwGA1UECxMFdG9yYW8xDTALBgNVBAsTBG5vZGUxLTArBgNVBAMTJDNh
Mzc0NmRlLWViMGQtNDg0MS04NzZkLTAzMzNlZmZiOWFiYzCCASIwDQYJKoZIhvcN
AQEBBQADggEPADCCAQoCggEBAJ0Gmu4mfTWqxRhBPuiTquAXk3v6M7jasfFetdxy
4oXit4RSJGa06yLoJRlXLm0Z7RcxIaY2mlKeFbJXTdlzjnBwXnY8Rc4IJ8z4ZEC4
0fVBH/Mk6rU/YIuFR4OJ8wv9rzqadDT1tN7IrbwTVlQliBoqYsD0ejzn7n17CFN7
8WqqTI2YOUNY7sZoZ9WKeqHgJYVmsnhSst6TK09lf7E1EU8vB8fVLPK+OJU8ktEx
9/FE8oNVzWTk06LIgY8Z+7288YKC3i3ybb67jvKSggwHn/vSvI0hqlbfOKBW90nM
mtO75B2t64R9L7GYieQlcWArHiDWVfaVUJpinVrTdgN83mkCAwEAAaN7MHkwCQYD
VR0TBAIwADAsBglghkgBhvhCAQ0EHxYdT3BlblNTTCBHZW5lcmF0ZWQgQ2VydGlm
aWNhdGUwHQYDVR0OBBYEFHNRJDYvS1xUMf30AjJO2Fhdaj5rMB8GA1UdIwQYMBaA
FFxdbenGSMr9D+t7E8Vkjgm6i1c7MA0GCSqGSIb3DQEBBQUAA4GBANT122nZa/Ym
hmHxMBgnY6utJ57iluCaIFxdOonuHXqIuFpMdtQ7Y9Mb2yK0cta8dXyGc0KCLyVd
N//JZdb7USo6MshMSnrWi6duhy5U8EGT76nIBPbAnKyAnSbhVdZG+DE8TvJANWea
Hlct0KMANryKtOUyUTv9D3sx52RJiCKq
-----END CERTIFICATE-----
