Certificate:
    Data:
        Version: 3 (0x2)
        Serial Number:
            d3:74:96:f8:cd:a5:7c:63
        Signature Algorithm: sha1WithRSAEncryption
        Issuer: C=JP, ST=Tokyo, O=Kazzla, OU=Development, CN=kazzla.com/emailAddress=koiroha@gmail.com
        Validity
            Not Before: Jan  9 20:20:35 2014 GMT
            Not After : Jan  7 20:20:35 2024 GMT
        Subject: C=JP, ST=Tokyo, O=Kazzla, OU=torao, OU=node, CN=431770d5-9a9c-459a-a272-441ec5c89bcf
        Subject Public Key Info:
            Public Key Algorithm: rsaEncryption
            RSA Public Key: (2048 bit)
                Modulus (2048 bit):
                    00:85:d5:85:00:e9:a8:dd:04:b3:54:72:31:15:da:
                    ea:3e:ac:83:a7:0d:c9:39:fa:e7:79:f8:aa:d4:17:
                    69:24:77:3e:56:57:d0:dc:4f:db:74:2c:18:ba:73:
                    32:4a:c8:95:5b:5d:21:4f:75:98:b9:7a:ba:7b:30:
                    2d:55:43:d8:29:1d:78:84:74:85:4d:62:8f:0d:a9:
                    71:2d:7e:b9:24:aa:22:33:2e:09:f9:69:79:6a:e8:
                    9c:e0:1a:5d:cc:44:4a:93:6b:33:47:10:1b:98:c1:
                    6f:24:61:bd:fc:d8:15:92:34:51:ed:8d:6f:fc:d5:
                    06:08:1f:1e:c6:7f:e3:2a:f8:76:a5:b0:16:8e:01:
                    42:cc:e8:6b:b6:64:0c:46:49:e4:85:45:f1:27:17:
                    51:f3:7e:ae:57:1e:24:0d:f2:45:b5:ae:aa:8f:94:
                    3d:ef:41:1e:80:1c:01:40:0a:d0:c7:2b:49:a0:0f:
                    2a:e6:99:21:f3:90:f8:fb:cb:9a:89:e8:d1:17:e0:
                    f8:db:fd:6a:e7:d8:8c:47:54:10:61:e1:ab:64:fc:
                    59:e4:8f:19:e6:3d:32:e9:e3:2f:0d:44:57:b6:cb:
                    d4:c0:52:11:cd:62:e9:23:b1:1c:52:0d:da:32:ad:
                    a1:3a:a2:c6:2d:a5:62:1e:f7:a1:02:f0:40:14:c5:
                    d5:bb
                Exponent: 65537 (0x10001)
        X509v3 extensions:
            X509v3 Basic Constraints: 
                CA:FALSE
            Netscape Comment: 
                OpenSSL Generated Certificate
            X509v3 Subject Key Identifier: 
                C4:3E:BA:57:9F:A0:46:AE:08:B2:2A:3E:16:35:43:DC:9C:52:D4:D4
            X509v3 Authority Key Identifier: 
                keyid:5C:5D:6D:E9:C6:48:CA:FD:0F:EB:7B:13:C5:64:8E:09:BA:8B:57:3B

    Signature Algorithm: sha1WithRSAEncryption
        30:74:4b:14:52:8e:99:3b:ca:b2:fc:77:65:b4:67:f1:3b:d0:
        d5:27:eb:01:4a:06:92:90:6e:84:91:14:6d:30:45:ce:bc:95:
        1a:d3:d1:5b:3e:80:f0:bf:61:96:63:86:2f:d6:3c:8d:48:5c:
        e6:26:d7:5b:12:14:6b:37:d3:ea:36:dc:c6:79:e7:4d:a8:9b:
        11:af:1d:d9:b2:af:66:d9:9f:f0:13:81:92:32:35:fd:11:4c:
        9b:25:45:4a:52:a4:90:c5:35:c7:6b:97:9a:ed:b3:70:dd:18:
        2e:79:2f:73:90:1e:7d:1f:68:3e:18:0f:c2:bc:43:be:73:2e:
        7b:59
-----BEGIN CERTIFICATE-----
MIIDdDCCAt2gAwIBAgIJANN0lvjNpXxjMA0GCSqGSIb3DQEBBQUAMHsxCzAJBgNV
BAYTAkpQMQ4wDAYDVQQIEwVUb2t5bzEPMA0GA1UEChMGS2F6emxhMRQwEgYDVQQL
EwtEZXZlbG9wbWVudDETMBEGA1UEAxMKa2F6emxhLmNvbTEgMB4GCSqGSIb3DQEJ
ARYRa29pcm9oYUBnbWFpbC5jb20wHhcNMTQwMTA5MjAyMDM1WhcNMjQwMTA3MjAy
MDM1WjB8MQswCQYDVQQGEwJKUDEOMAwGA1UECBMFVG9reW8xDzANBgNVBAoTBkth
enpsYTEOMAwGA1UECxMFdG9yYW8xDTALBgNVBAsTBG5vZGUxLTArBgNVBAMTJDQz
MTc3MGQ1LTlhOWMtNDU5YS1hMjcyLTQ0MWVjNWM4OWJjZjCCASIwDQYJKoZIhvcN
AQEBBQADggEPADCCAQoCggEBAIXVhQDpqN0Es1RyMRXa6j6sg6cNyTn653n4qtQX
aSR3PlZX0NxP23QsGLpzMkrIlVtdIU91mLl6unswLVVD2CkdeIR0hU1ijw2pcS1+
uSSqIjMuCflpeWronOAaXcxESpNrM0cQG5jBbyRhvfzYFZI0Ue2Nb/zVBggfHsZ/
4yr4dqWwFo4BQszoa7ZkDEZJ5IVF8ScXUfN+rlceJA3yRbWuqo+UPe9BHoAcAUAK
0McrSaAPKuaZIfOQ+PvLmono0Rfg+Nv9aufYjEdUEGHhq2T8WeSPGeY9MunjLw1E
V7bL1MBSEc1i6SOxHFIN2jKtoTqixi2lYh73oQLwQBTF1bsCAwEAAaN7MHkwCQYD
VR0TBAIwADAsBglghkgBhvhCAQ0EHxYdT3BlblNTTCBHZW5lcmF0ZWQgQ2VydGlm
aWNhdGUwHQYDVR0OBBYEFMQ+ulefoEauCLIqPhY1Q9ycUtTUMB8GA1UdIwQYMBaA
FFxdbenGSMr9D+t7E8Vkjgm6i1c7MA0GCSqGSIb3DQEBBQUAA4GBADB0SxRSjpk7
yrL8d2W0Z/E70NUn6wFKBpKQboSRFG0wRc68lRrT0Vs+gPC/YZZjhi/WPI1IXOYm
11sSFGs30+o23MZ5502omxGvHdmyr2bZn/ATgZIyNf0RTJslRUpSpJDFNcdrl5rt
s3DdGC55L3OQHn0faD4YD8K8Q75zLntZ
-----END CERTIFICATE-----
