Certificate:
    Data:
        Version: 3 (0x2)
        Serial Number:
            d3:74:96:f8:cd:a5:7c:61
        Signature Algorithm: sha1WithRSAEncryption
        Issuer: C=JP, ST=Tokyo, O=Kazzla, OU=Development, CN=kazzla.com/emailAddress=koiroha@gmail.com
        Validity
            Not Before: Jan  9 19:29:08 2014 GMT
            Not After : Jan  7 19:29:08 2024 GMT
        Subject: C=JP, ST=Tokyo, O=Kazzla, OU=torao, OU=node, CN=99a9dab4-afb2-49d3-a694-86dece0a544b
        Subject Public Key Info:
            Public Key Algorithm: rsaEncryption
            RSA Public Key: (2048 bit)
                Modulus (2048 bit):
                    00:ba:81:4e:3b:12:a4:c0:0f:1c:a7:a2:de:18:6e:
                    35:28:d6:5a:10:dd:f7:ea:8b:06:38:45:65:9e:a8:
                    55:e2:31:54:39:12:9c:1d:13:f2:f0:b2:24:de:fc:
                    73:06:9f:5d:1a:13:3f:8b:9b:11:50:3b:72:41:42:
                    e3:26:26:52:4e:14:7d:bd:b1:f3:e6:9c:48:e6:f7:
                    43:73:2b:64:88:93:bc:e8:c5:48:1d:db:a9:96:73:
                    69:ea:f6:ee:9b:45:7b:2d:f3:81:0e:c8:cd:78:67:
                    4a:2e:08:29:ae:be:6b:93:2d:f6:c6:7f:83:9a:0d:
                    00:ad:81:35:34:0b:ab:d6:eb:ef:76:00:83:79:b2:
                    b0:d8:cd:93:39:db:11:32:be:54:c5:fe:e3:a8:bc:
                    e5:c9:0a:ef:62:08:df:40:60:f8:d1:6a:ba:89:70:
                    13:d4:c4:34:f5:0b:1e:76:99:9a:6d:04:b3:b5:ed:
                    a8:64:77:f0:cf:1d:82:f3:29:0e:20:ba:10:bb:90:
                    2c:eb:6e:6d:41:7a:50:9e:06:90:65:6b:6e:e8:3a:
                    e6:b7:4b:b7:fe:9e:fd:f7:89:aa:37:f2:e5:d3:c1:
                    38:e6:d5:61:e3:32:45:53:3d:81:30:f7:e8:6f:be:
                    49:74:f8:f2:77:20:a7:92:0a:9b:da:bd:44:dc:41:
                    94:33
                Exponent: 65537 (0x10001)
        X509v3 extensions:
            X509v3 Basic Constraints: 
                CA:FALSE
            Netscape Comment: 
                OpenSSL Generated Certificate
            X509v3 Subject Key Identifier: 
                2C:5F:5E:A1:69:AD:A4:FB:4D:39:90:DE:B4:2E:54:EC:E2:02:04:E8
            X509v3 Authority Key Identifier: 
                keyid:5C:5D:6D:E9:C6:48:CA:FD:0F:EB:7B:13:C5:64:8E:09:BA:8B:57:3B

    Signature Algorithm: sha1WithRSAEncryption
        12:02:d9:4b:2e:33:9b:34:52:8a:f7:6a:d7:d2:e5:2d:1b:9c:
        48:27:fb:94:65:a7:5a:12:bf:b9:5b:c4:19:7b:f8:7b:8e:a4:
        2b:57:b8:76:8e:1d:ea:82:22:25:bc:d5:ef:e3:a7:bc:45:fd:
        a6:24:d7:98:7c:6b:66:10:02:e1:8b:46:33:fa:7f:da:e4:23:
        dd:00:34:8a:66:5e:82:7f:01:b4:e4:f4:86:c9:91:a9:a2:f8:
        de:25:e4:7e:c7:a2:7b:41:bb:0c:d4:cb:d9:8b:c6:85:c2:28:
        d7:11:fc:8a:93:c9:c8:bb:7c:c7:d1:05:eb:1c:d4:65:e9:63:
        1a:8b
-----BEGIN CERTIFICATE-----
MIIDdDCCAt2gAwIBAgIJANN0lvjNpXxhMA0GCSqGSIb3DQEBBQUAMHsxCzAJBgNV
BAYTAkpQMQ4wDAYDVQQIEwVUb2t5bzEPMA0GA1UEChMGS2F6emxhMRQwEgYDVQQL
EwtEZXZlbG9wbWVudDETMBEGA1UEAxMKa2F6emxhLmNvbTEgMB4GCSqGSIb3DQEJ
ARYRa29pcm9oYUBnbWFpbC5jb20wHhcNMTQwMTA5MTkyOTA4WhcNMjQwMTA3MTky
OTA4WjB8MQswCQYDVQQGEwJKUDEOMAwGA1UECBMFVG9reW8xDzANBgNVBAoTBkth
enpsYTEOMAwGA1UECxMFdG9yYW8xDTALBgNVBAsTBG5vZGUxLTArBgNVBAMTJDk5
YTlkYWI0LWFmYjItNDlkMy1hNjk0LTg2ZGVjZTBhNTQ0YjCCASIwDQYJKoZIhvcN
AQEBBQADggEPADCCAQoCggEBALqBTjsSpMAPHKei3hhuNSjWWhDd9+qLBjhFZZ6o
VeIxVDkSnB0T8vCyJN78cwafXRoTP4ubEVA7ckFC4yYmUk4Ufb2x8+acSOb3Q3Mr
ZIiTvOjFSB3bqZZzaer27ptFey3zgQ7IzXhnSi4IKa6+a5Mt9sZ/g5oNAK2BNTQL
q9br73YAg3mysNjNkznbETK+VMX+46i85ckK72II30Bg+NFquolwE9TENPULHnaZ
mm0Es7XtqGR38M8dgvMpDiC6ELuQLOtubUF6UJ4GkGVrbug65rdLt/6e/feJqjfy
5dPBOObVYeMyRVM9gTD36G++SXT48ncgp5IKm9q9RNxBlDMCAwEAAaN7MHkwCQYD
VR0TBAIwADAsBglghkgBhvhCAQ0EHxYdT3BlblNTTCBHZW5lcmF0ZWQgQ2VydGlm
aWNhdGUwHQYDVR0OBBYEFCxfXqFpraT7TTmQ3rQuVOziAgToMB8GA1UdIwQYMBaA
FFxdbenGSMr9D+t7E8Vkjgm6i1c7MA0GCSqGSIb3DQEBBQUAA4GBABIC2UsuM5s0
Uor3atfS5S0bnEgn+5Rlp1oSv7lbxBl7+HuOpCtXuHaOHeqCIiW81e/jp7xF/aYk
15h8a2YQAuGLRjP6f9rkI90ANIpmXoJ/AbTk9IbJkami+N4l5H7HontBuwzUy9mL
xoXCKNcR/IqTyci7fMfRBesc1GXpYxqL
-----END CERTIFICATE-----
