Certificate:
    Data:
        Version: 3 (0x2)
        Serial Number:
            d3:74:96:f8:cd:a5:7c:64
        Signature Algorithm: sha1WithRSAEncryption
        Issuer: C=JP, ST=Tokyo, O=Kazzla, OU=Development, CN=kazzla.com/emailAddress=koiroha@gmail.com
        Validity
            Not Before: Jan  9 20:28:51 2014 GMT
            Not After : Jan  7 20:28:51 2024 GMT
        Subject: C=JP, ST=Tokyo, O=Kazzla, OU=torao, OU=node, CN=f524b72b-de22-4f82-b0da-16fc40e6062e
        Subject Public Key Info:
            Public Key Algorithm: rsaEncryption
            RSA Public Key: (2048 bit)
                Modulus (2048 bit):
                    00:a3:fd:ac:c8:2a:5e:b0:82:71:f0:23:0c:c8:84:
                    56:52:77:10:77:42:ac:8c:b8:6a:ca:bd:90:39:bf:
                    e9:23:cc:99:38:c4:dc:06:0e:65:d4:2e:29:54:6f:
                    5a:32:df:db:d2:31:bc:8a:3e:d3:85:66:cb:0b:13:
                    a3:de:66:bc:9b:71:e7:b7:37:4b:34:a6:8f:d8:f4:
                    e1:ba:0c:30:0d:e5:a8:aa:b2:c7:73:04:65:90:ed:
                    77:25:a0:a1:74:f2:bb:0b:c7:da:e4:5b:f4:4c:38:
                    70:55:8b:8c:64:9f:d2:93:80:98:cc:21:cf:db:44:
                    6c:8f:cd:94:0b:b9:a4:aa:f7:5e:ba:0c:07:2a:82:
                    41:11:f7:77:f5:7d:fe:52:ac:b6:ce:72:53:5d:5a:
                    f2:7c:ea:d7:64:6d:33:81:34:9b:5d:44:3d:8a:82:
                    f2:f5:87:a2:bd:4f:21:94:08:cc:a7:d1:34:bb:b9:
                    fe:a2:13:43:c6:4b:e8:2c:02:a7:5f:3f:86:bc:97:
                    1f:a3:83:50:e7:b1:03:8e:63:27:ad:ed:77:51:95:
                    70:1d:e8:e3:f7:bb:76:be:5e:14:3c:2b:65:d8:43:
                    a6:fa:f2:d7:af:87:fb:8d:61:a2:c9:e4:1c:10:21:
                    1d:86:e8:23:17:0b:6a:20:b0:20:5f:27:4b:fa:6d:
                    4e:a5
                Exponent: 65537 (0x10001)
        X509v3 extensions:
            X509v3 Basic Constraints: 
                CA:FALSE
            Netscape Comment: 
                OpenSSL Generated Certificate
            X509v3 Subject Key Identifier: 
                DC:6F:FE:2E:8D:19:3F:1D:9D:41:0A:89:11:6D:FA:DA:CB:12:33:82
            X509v3 Authority Key Identifier: 
                keyid:5C:5D:6D:E9:C6:48:CA:FD:0F:EB:7B:13:C5:64:8E:09:BA:8B:57:3B

    Signature Algorithm: sha1WithRSAEncryption
        39:35:ed:02:d7:8a:1a:65:16:cf:b5:34:df:32:45:21:f6:25:
        52:64:b4:0a:18:bd:02:58:58:13:25:de:c9:89:d2:f4:ce:c5:
        78:63:3c:d2:0b:7a:5a:d9:90:c5:10:5b:4c:ec:b6:03:38:b3:
        e2:be:92:62:e3:60:7e:64:37:e0:2f:8f:a5:66:0b:32:90:07:
        b5:17:98:8c:ac:05:aa:3c:a9:66:b9:87:c9:2b:08:98:84:d4:
        08:b1:3a:7a:0c:ba:55:33:23:9e:88:cf:49:bd:f3:96:b2:4e:
        60:b7:b3:3b:bd:63:48:9a:4d:8c:0d:1b:99:88:83:a3:49:76:
        e0:16
-----BEGIN CERTIFICATE-----
MIIDdDCCAt2gAwIBAgIJANN0lvjNpXxkMA0GCSqGSIb3DQEBBQUAMHsxCzAJBgNV
BAYTAkpQMQ4wDAYDVQQIEwVUb2t5bzEPMA0GA1UEChMGS2F6emxhMRQwEgYDVQQL
EwtEZXZlbG9wbWVudDETMBEGA1UEAxMKa2F6emxhLmNvbTEgMB4GCSqGSIb3DQEJ
ARYRa29pcm9oYUBnbWFpbC5jb20wHhcNMTQwMTA5MjAyODUxWhcNMjQwMTA3MjAy
ODUxWjB8MQswCQYDVQQGEwJKUDEOMAwGA1UECBMFVG9reW8xDzANBgNVBAoTBkth
enpsYTEOMAwGA1UECxMFdG9yYW8xDTALBgNVBAsTBG5vZGUxLTArBgNVBAMTJGY1
MjRiNzJiLWRlMjItNGY4Mi1iMGRhLTE2ZmM0MGU2MDYyZTCCASIwDQYJKoZIhvcN
AQEBBQADggEPADCCAQoCggEBAKP9rMgqXrCCcfAjDMiEVlJ3EHdCrIy4asq9kDm/
6SPMmTjE3AYOZdQuKVRvWjLf29IxvIo+04VmywsTo95mvJtx57c3SzSmj9j04boM
MA3lqKqyx3MEZZDtdyWgoXTyuwvH2uRb9Ew4cFWLjGSf0pOAmMwhz9tEbI/NlAu5
pKr3XroMByqCQRH3d/V9/lKsts5yU11a8nzq12RtM4E0m11EPYqC8vWHor1PIZQI
zKfRNLu5/qITQ8ZL6CwCp18/hryXH6ODUOexA45jJ63td1GVcB3o4/e7dr5eFDwr
ZdhDpvry16+H+41hosnkHBAhHYboIxcLaiCwIF8nS/ptTqUCAwEAAaN7MHkwCQYD
VR0TBAIwADAsBglghkgBhvhCAQ0EHxYdT3BlblNTTCBHZW5lcmF0ZWQgQ2VydGlm
aWNhdGUwHQYDVR0OBBYEFNxv/i6NGT8dnUEKiRFt+trLEjOCMB8GA1UdIwQYMBaA
FFxdbenGSMr9D+t7E8Vkjgm6i1c7MA0GCSqGSIb3DQEBBQUAA4GBADk17QLXihpl
Fs+1NN8yRSH2JVJktAoYvQJYWBMl3smJ0vTOxXhjPNILelrZkMUQW0zstgM4s+K+
kmLjYH5kN+Avj6VmCzKQB7UXmIysBao8qWa5h8krCJiE1AixOnoMulUzI56Iz0m9
85ayTmC3szu9Y0iaTYwNG5mIg6NJduAW
-----END CERTIFICATE-----
