Certificate:
    Data:
        Version: 3 (0x2)
        Serial Number:
            d3:74:96:f8:cd:a5:7c:5f
        Signature Algorithm: sha1WithRSAEncryption
        Issuer: C=JP, ST=Tokyo, O=Kazzla, OU=Development, CN=kazzla.com/emailAddress=koiroha@gmail.com
        Validity
            Not Before: Jan  9 18:53:26 2014 GMT
            Not After : Jan  7 18:53:26 2024 GMT
        Subject: C=JP, ST=Tokyo, O=Kazzla, OU=Development, OU=torao, OU=node, CN=b75eeaee-0d56-4d06-a597-680603f119cb
        Subject Public Key Info:
            Public Key Algorithm: rsaEncryption
            RSA Public Key: (2048 bit)
                Modulus (2048 bit):
                    00:f5:f9:83:fe:e4:6f:b6:b2:bc:3f:63:ab:96:27:
                    64:f8:d4:be:f3:21:19:91:f4:69:38:0e:f4:40:f4:
                    f6:ee:9e:5f:d8:5f:6e:35:84:1d:7d:7e:26:8e:60:
                    0c:77:1c:47:57:b2:25:dd:bf:e6:a4:a3:63:dc:d1:
                    26:b2:70:47:02:e1:91:e3:b0:bd:d6:0d:23:ba:02:
                    a7:a4:bb:a6:9a:aa:3a:8b:97:8d:e7:08:bc:f3:92:
                    b8:20:0e:6b:0e:f5:d0:8c:fb:52:25:cf:0d:7c:b8:
                    02:62:22:f9:2c:20:98:d7:ff:b5:6e:3b:2d:37:97:
                    7b:cd:0b:da:9b:49:3c:35:a1:9a:53:82:7e:ae:65:
                    6d:dc:e8:c9:5f:fc:7b:e1:e0:4c:6b:fd:a0:4e:c8:
                    95:d2:46:ab:b7:07:ec:0f:c6:13:c1:72:95:b6:d5:
                    b3:79:90:26:bb:2e:4a:98:57:46:f2:14:bd:b7:ed:
                    06:00:4e:f3:04:e2:2d:1d:7d:68:f1:75:76:e5:67:
                    a3:d7:cf:0f:a4:cb:24:42:8d:bf:db:35:fd:15:8e:
                    0c:38:a5:ba:e0:ce:7e:e8:f5:80:dd:1e:fd:44:87:
                    3a:12:68:36:83:21:54:83:be:52:f8:a2:75:92:09:
                    aa:b9:42:e5:77:31:10:89:61:da:6d:45:60:3e:fe:
                    5f:2b
                Exponent: 65537 (0x10001)
        X509v3 extensions:
            X509v3 Basic Constraints: 
                CA:FALSE
            Netscape Comment: 
                OpenSSL Generated Certificate
            X509v3 Subject Key Identifier: 
                08:83:55:21:D1:D5:A1:9E:9F:9E:7D:D4:92:58:59:1F:16:71:70:07
            X509v3 Authority Key Identifier: 
                keyid:5C:5D:6D:E9:C6:48:CA:FD:0F:EB:7B:13:C5:64:8E:09:BA:8B:57:3B

    Signature Algorithm: sha1WithRSAEncryption
        03:d1:aa:23:c8:80:22:dc:1d:4e:72:eb:44:41:48:34:08:ed:
        5c:56:5a:23:1a:58:85:0d:8f:e4:df:c1:b2:7d:09:9d:da:2e:
        b7:c0:56:f9:1c:b6:28:68:e7:47:d7:6f:c7:49:39:dd:00:ad:
        79:2e:e5:12:87:4c:ac:51:ce:0a:ed:15:8e:ca:e2:cf:41:a4:
        a7:3f:9a:c3:1d:cd:d3:f8:3a:09:95:9e:ae:3c:60:f9:3e:83:
        3b:cd:7d:c2:14:2e:20:71:a1:08:a0:66:de:01:cd:ba:1c:50:
        c8:1b:8d:01:42:2e:78:9e:49:c8:07:2c:65:d9:0b:0c:2b:d6:
        c3:af
-----BEGIN CERTIFICATE-----
MIIDizCCAvSgAwIBAgIJANN0lvjNpXxfMA0GCSqGSIb3DQEBBQUAMHsxCzAJBgNV
BAYTAkpQMQ4wDAYDVQQIEwVUb2t5bzEPMA0GA1UEChMGS2F6emxhMRQwEgYDVQQL
EwtEZXZlbG9wbWVudDETMBEGA1UEAxMKa2F6emxhLmNvbTEgMB4GCSqGSIb3DQEJ
ARYRa29pcm9oYUBnbWFpbC5jb20wHhcNMTQwMTA5MTg1MzI2WhcNMjQwMTA3MTg1
MzI2WjCBkjELMAkGA1UEBhMCSlAxDjAMBgNVBAgTBVRva3lvMQ8wDQYDVQQKEwZL
YXp6bGExFDASBgNVBAsTC0RldmVsb3BtZW50MQ4wDAYDVQQLEwV0b3JhbzENMAsG
A1UECxMEbm9kZTEtMCsGA1UEAxMkYjc1ZWVhZWUtMGQ1Ni00ZDA2LWE1OTctNjgw
NjAzZjExOWNiMIIBIjANBgkqhkiG9w0BAQEFAAOCAQ8AMIIBCgKCAQEA9fmD/uRv
trK8P2Orlidk+NS+8yEZkfRpOA70QPT27p5f2F9uNYQdfX4mjmAMdxxHV7Il3b/m
pKNj3NEmsnBHAuGR47C91g0jugKnpLummqo6i5eN5wi885K4IA5rDvXQjPtSJc8N
fLgCYiL5LCCY1/+1bjstN5d7zQvam0k8NaGaU4J+rmVt3OjJX/x74eBMa/2gTsiV
0kartwfsD8YTwXKVttWzeZAmuy5KmFdG8hS9t+0GAE7zBOItHX1o8XV25Wej188P
pMskQo2/2zX9FY4MOKW64M5+6PWA3R79RIc6Emg2gyFUg75S+KJ1kgmquULldzEQ
iWHabUVgPv5fKwIDAQABo3sweTAJBgNVHRMEAjAAMCwGCWCGSAGG+EIBDQQfFh1P
cGVuU1NMIEdlbmVyYXRlZCBDZXJ0aWZpY2F0ZTAdBgNVHQ4EFgQUCINVIdHVoZ6f
nn3UklhZHxZxcAcwHwYDVR0jBBgwFoAUXF1t6cZIyv0P63sTxWSOCbqLVzswDQYJ
KoZIhvcNAQEFBQADgYEAA9GqI8iAItwdTnLrREFINAjtXFZaIxpYhQ2P5N/Bsn0J
ndout8BW+Ry2KGjnR9dvx0k53QCteS7lEodMrFHOCu0Vjsriz0Gkpz+awx3N0/g6
CZWerjxg+T6DO819whQuIHGhCKBm3gHNuhxQyBuNAUIueJ5JyAcsZdkLDCvWw68=
-----END CERTIFICATE-----
