Certificate:
    Data:
        Version: 3 (0x2)
        Serial Number:
            d3:74:96:f8:cd:a5:7c:62
        Signature Algorithm: sha1WithRSAEncryption
        Issuer: C=JP, ST=Tokyo, O=Kazzla, OU=Development, CN=kazzla.com/emailAddress=koiroha@gmail.com
        Validity
            Not Before: Jan  9 19:54:12 2014 GMT
            Not After : Jan  7 19:54:12 2024 GMT
        Subject: C=JP, ST=Tokyo, O=Kazzla, OU=torao, OU=node, CN=7a64902b-edf0-4330-985a-4693e6b769c8
        Subject Public Key Info:
            Public Key Algorithm: rsaEncryption
            RSA Public Key: (2048 bit)
                Modulus (2048 bit):
                    00:bb:f1:62:3e:bf:69:40:b0:9f:69:a1:71:4d:92:
                    3e:de:58:e6:05:1a:7f:29:4f:9d:76:ca:23:9c:54:
                    11:d7:0f:ed:62:a2:82:63:63:56:26:25:fc:88:41:
                    66:44:99:3a:18:83:9e:d9:66:6a:b6:9d:f6:aa:cd:
                    b3:a4:e9:b7:fb:c6:ee:08:93:81:3b:4d:a3:36:23:
                    cd:ad:2c:d3:ff:38:d2:a9:19:18:4e:c1:e7:75:f1:
                    ae:59:10:05:c3:e5:56:c8:4d:cf:0e:ee:a7:6b:9d:
                    8d:27:06:44:2b:e8:bf:ca:bc:d9:78:97:fc:10:5f:
                    c8:55:56:a3:de:4d:7c:c9:88:5d:65:f3:37:ba:a4:
                    0a:1b:94:16:0b:a1:3c:20:4a:76:ef:79:24:73:19:
                    99:70:64:6a:1f:22:3e:71:64:dc:b8:e3:94:18:61:
                    8c:a8:5a:9b:70:55:ca:2e:5b:32:bb:86:4a:0d:b4:
                    9e:0f:e7:d4:31:0b:70:cc:8a:bb:bc:02:94:01:25:
                    4d:ba:4a:6c:69:b0:49:53:eb:f3:6f:c6:6d:da:a0:
                    c6:57:ed:7a:0b:56:39:0a:47:03:6e:19:03:07:e6:
                    0e:bd:89:cb:c8:fa:ee:9e:04:8b:63:7f:da:2b:77:
                    41:37:4d:c2:34:a1:5e:e9:68:48:7a:eb:cb:62:1a:
                    a3:8b
                Exponent: 65537 (0x10001)
        X509v3 extensions:
            X509v3 Basic Constraints: 
                CA:FALSE
            Netscape Comment: 
                OpenSSL Generated Certificate
            X509v3 Subject Key Identifier: 
                50:A3:4F:39:AD:00:C5:6B:88:CE:F9:BE:0B:58:09:EF:B4:3B:F3:B8
            X509v3 Authority Key Identifier: 
                keyid:5C:5D:6D:E9:C6:48:CA:FD:0F:EB:7B:13:C5:64:8E:09:BA:8B:57:3B

    Signature Algorithm: sha1WithRSAEncryption
        64:b4:5d:87:21:65:34:09:40:b9:e6:06:4a:78:4a:e4:51:13:
        1b:53:ff:0e:51:b0:de:d4:6e:df:af:9a:16:bc:5a:cc:e4:9e:
        e5:0b:42:31:69:ba:43:e1:cb:68:d3:7b:b4:6c:b4:9b:1d:b4:
        8f:f4:80:90:72:52:c9:e0:85:c0:1c:24:5b:fc:90:56:97:0e:
        8b:dc:43:8a:70:f1:28:5b:d9:40:7c:49:15:b9:dc:8d:0e:b7:
        42:62:eb:56:48:b8:8c:44:30:e3:4d:0d:5e:10:d2:cb:a7:ce:
        46:06:a5:c9:71:d0:90:42:a8:fa:66:33:1d:0c:c3:b7:37:56:
        7b:a4
-----BEGIN CERTIFICATE-----
MIIDdDCCAt2gAwIBAgIJANN0lvjNpXxiMA0GCSqGSIb3DQEBBQUAMHsxCzAJBgNV
BAYTAkpQMQ4wDAYDVQQIEwVUb2t5bzEPMA0GA1UEChMGS2F6emxhMRQwEgYDVQQL
EwtEZXZlbG9wbWVudDETMBEGA1UEAxMKa2F6emxhLmNvbTEgMB4GCSqGSIb3DQEJ
ARYRa29pcm9oYUBnbWFpbC5jb20wHhcNMTQwMTA5MTk1NDEyWhcNMjQwMTA3MTk1
NDEyWjB8MQswCQYDVQQGEwJKUDEOMAwGA1UECBMFVG9reW8xDzANBgNVBAoTBkth
enpsYTEOMAwGA1UECxMFdG9yYW8xDTALBgNVBAsTBG5vZGUxLTArBgNVBAMTJDdh
NjQ5MDJiLWVkZjAtNDMzMC05ODVhLTQ2OTNlNmI3NjljODCCASIwDQYJKoZIhvcN
AQEBBQADggEPADCCAQoCggEBALvxYj6/aUCwn2mhcU2SPt5Y5gUafylPnXbKI5xU
EdcP7WKigmNjViYl/IhBZkSZOhiDntlmarad9qrNs6Tpt/vG7giTgTtNozYjza0s
0/840qkZGE7B53XxrlkQBcPlVshNzw7up2udjScGRCvov8q82XiX/BBfyFVWo95N
fMmIXWXzN7qkChuUFguhPCBKdu95JHMZmXBkah8iPnFk3LjjlBhhjKham3BVyi5b
MruGSg20ng/n1DELcMyKu7wClAElTbpKbGmwSVPr82/GbdqgxlftegtWOQpHA24Z
AwfmDr2Jy8j67p4Ei2N/2it3QTdNwjShXuloSHrry2Iao4sCAwEAAaN7MHkwCQYD
VR0TBAIwADAsBglghkgBhvhCAQ0EHxYdT3BlblNTTCBHZW5lcmF0ZWQgQ2VydGlm
aWNhdGUwHQYDVR0OBBYEFFCjTzmtAMVriM75vgtYCe+0O/O4MB8GA1UdIwQYMBaA
FFxdbenGSMr9D+t7E8Vkjgm6i1c7MA0GCSqGSIb3DQEBBQUAA4GBAGS0XYchZTQJ
QLnmBkp4SuRRExtT/w5RsN7Ubt+vmha8WszknuULQjFpukPhy2jTe7RstJsdtI/0
gJByUsnghcAcJFv8kFaXDovcQ4pw8Shb2UB8SRW53I0Ot0Ji61ZIuIxEMONNDV4Q
0sunzkYGpclx0JBCqPpmMx0Mw7c3Vnuk
-----END CERTIFICATE-----
