Certificate:
    Data:
        Version: 3 (0x2)
        Serial Number:
            d3:74:96:f8:cd:a5:7c:65
        Signature Algorithm: sha1WithRSAEncryption
        Issuer: C=JP, ST=Tokyo, O=Kazzla, OU=Development, CN=kazzla.com/emailAddress=koiroha@gmail.com
        Validity
            Not Before: Jan  9 20:31:40 2014 GMT
            Not After : Jan  7 20:31:40 2024 GMT
        Subject: C=JP, ST=Tokyo, O=Kazzla, OU=torao, OU=node, CN=d2521c80-e31f-48b0-a6f3-3f71b9b32003
        Subject Public Key Info:
            Public Key Algorithm: rsaEncryption
            RSA Public Key: (2048 bit)
                Modulus (2048 bit):
                    00:c8:6b:fc:c0:15:1e:09:26:6e:fe:01:ed:d6:57:
                    f5:56:c4:d4:36:39:3d:0e:ed:be:e9:7c:6d:ed:2a:
                    5d:5a:22:1b:96:06:79:5a:1d:f2:de:d4:de:db:7a:
                    24:24:41:e8:23:be:3c:de:38:fc:db:bc:61:f0:c7:
                    81:11:6f:e8:85:d9:66:38:f4:14:11:1c:57:a4:58:
                    30:9b:24:28:d6:85:df:7e:e1:cb:2d:b6:fb:cc:3d:
                    52:10:61:b5:06:22:b1:57:2c:da:9e:57:d2:53:e0:
                    2c:68:9f:1d:4b:d7:00:1b:b1:04:64:9a:d4:8e:80:
                    2a:4b:05:21:5f:9d:22:64:fe:8f:98:96:e8:ac:48:
                    4b:57:2f:62:ee:9e:ad:01:47:53:77:d0:39:72:b4:
                    d3:9b:a4:79:b5:fe:29:2a:7f:3c:81:aa:95:d6:c4:
                    7e:ca:7a:17:c6:e2:df:6b:83:5b:38:00:11:b5:6c:
                    83:cb:88:7c:07:ab:14:d5:8b:a4:e2:fc:12:7c:4e:
                    4c:53:42:f9:8d:70:47:8e:7f:37:c8:3f:68:29:0e:
                    76:90:2e:c1:78:49:10:fc:c3:0d:fb:f3:e2:e9:e7:
                    39:a1:05:eb:af:5b:40:30:a2:8b:94:f8:a3:42:57:
                    40:30:a4:46:6b:10:e4:cb:2f:3b:96:4d:52:e6:5d:
                    9b:e9
                Exponent: 65537 (0x10001)
        X509v3 extensions:
            X509v3 Basic Constraints: 
                CA:FALSE
            Netscape Comment: 
                OpenSSL Generated Certificate
            X509v3 Subject Key Identifier: 
                9A:EA:11:7D:35:80:85:DF:ED:E8:D2:4B:5F:A1:48:52:BC:67:6C:3C
            X509v3 Authority Key Identifier: 
                keyid:5C:5D:6D:E9:C6:48:CA:FD:0F:EB:7B:13:C5:64:8E:09:BA:8B:57:3B

    Signature Algorithm: sha1WithRSAEncryption
        5e:8e:91:bd:7a:09:24:11:82:c6:50:25:2c:54:49:57:a5:62:
        00:e6:32:31:0d:ce:f6:69:17:81:0a:7a:67:95:ec:fe:f9:1a:
        3a:ba:4f:b1:72:8c:94:f3:fd:64:0b:d3:48:d3:b7:13:50:23:
        75:39:a6:81:cf:de:49:51:d2:fd:63:e2:ad:21:a3:02:2b:f0:
        91:af:b6:da:22:b0:09:fb:da:2f:f6:41:a7:ec:d1:6a:34:c1:
        37:79:2b:94:64:08:c9:0a:a3:5f:24:cc:08:cb:f2:15:63:22:
        0c:11:98:8a:c7:4e:25:90:a6:7c:c6:fc:ca:15:e8:91:81:10:
        37:05
-----BEGIN CERTIFICATE-----
MIIDdDCCAt2gAwIBAgIJANN0lvjNpXxlMA0GCSqGSIb3DQEBBQUAMHsxCzAJBgNV
BAYTAkpQMQ4wDAYDVQQIEwVUb2t5bzEPMA0GA1UEChMGS2F6emxhMRQwEgYDVQQL
EwtEZXZlbG9wbWVudDETMBEGA1UEAxMKa2F6emxhLmNvbTEgMB4GCSqGSIb3DQEJ
ARYRa29pcm9oYUBnbWFpbC5jb20wHhcNMTQwMTA5MjAzMTQwWhcNMjQwMTA3MjAz
MTQwWjB8MQswCQYDVQQGEwJKUDEOMAwGA1UECBMFVG9reW8xDzANBgNVBAoTBkth
enpsYTEOMAwGA1UECxMFdG9yYW8xDTALBgNVBAsTBG5vZGUxLTArBgNVBAMTJGQy
NTIxYzgwLWUzMWYtNDhiMC1hNmYzLTNmNzFiOWIzMjAwMzCCASIwDQYJKoZIhvcN
AQEBBQADggEPADCCAQoCggEBAMhr/MAVHgkmbv4B7dZX9VbE1DY5PQ7tvul8be0q
XVoiG5YGeVod8t7U3tt6JCRB6CO+PN44/Nu8YfDHgRFv6IXZZjj0FBEcV6RYMJsk
KNaF337hyy22+8w9UhBhtQYisVcs2p5X0lPgLGifHUvXABuxBGSa1I6AKksFIV+d
ImT+j5iW6KxIS1cvYu6erQFHU3fQOXK005ukebX+KSp/PIGqldbEfsp6F8bi32uD
WzgAEbVsg8uIfAerFNWLpOL8EnxOTFNC+Y1wR45/N8g/aCkOdpAuwXhJEPzDDfvz
4unnOaEF669bQDCii5T4o0JXQDCkRmsQ5MsvO5ZNUuZdm+kCAwEAAaN7MHkwCQYD
VR0TBAIwADAsBglghkgBhvhCAQ0EHxYdT3BlblNTTCBHZW5lcmF0ZWQgQ2VydGlm
aWNhdGUwHQYDVR0OBBYEFJrqEX01gIXf7ejSS1+hSFK8Z2w8MB8GA1UdIwQYMBaA
FFxdbenGSMr9D+t7E8Vkjgm6i1c7MA0GCSqGSIb3DQEBBQUAA4GBAF6Okb16CSQR
gsZQJSxUSVelYgDmMjENzvZpF4EKemeV7P75Gjq6T7FyjJTz/WQL00jTtxNQI3U5
poHP3klR0v1j4q0howIr8JGvttoisAn72i/2Qafs0Wo0wTd5K5RkCMkKo18kzAjL
8hVjIgwRmIrHTiWQpnzG/MoV6JGBEDcF
-----END CERTIFICATE-----
